target datalayout = "e-m:e-p270:32:32-p271:32:32-p272:64:64-i64:64-i128:128-f80:128-n8:16:32:64-S128"
target triple = "x86_64-pc-linux-gnu"

%struct.SDL_AtomicInt = type { i32 }
%struct.SDL_AudioStream = type { ptr, i32, ptr, ptr, ptr, ptr, %struct.SDL_AudioSpec, %struct.SDL_AudioSpec, ptr, ptr, float, float, ptr, %struct.SDL_AudioSpec, ptr, [8 x i32], i64, ptr, i64, i8, ptr, ptr, ptr, ptr, ptr }
%struct.SDL_AudioSpec = type { i32, i32, i32 }
%struct.SDL_AudioDevice = type { ptr, ptr, %struct.SDL_AtomicInt, ptr, ptr, ptr, ptr, ptr, ptr, ptr, i32, ptr, %struct.SDL_AudioSpec, i32, ptr, %struct.SDL_AudioSpec, i32, i32, %struct.SDL_AtomicInt, %struct.SDL_AtomicInt, i8, i8, ptr, ptr, ptr, i32, ptr, i8, ptr, ptr }
%struct.SDL_LogicalAudioDevice = type { i32, ptr, %struct.SDL_AtomicInt, float, ptr, i8, i8, ptr, ptr, ptr, ptr, ptr, ptr, ptr }

; Function Attrs: nounwind uwtable
define hidden void @SDL_UnbindAudioStreams_REAL(ptr noundef %0, i32 noundef %1) #0 {
  %3 = alloca ptr, align 8
  %4 = alloca i32, align 4
  %5 = alloca i32, align 4
  %6 = alloca i32, align 4
  %7 = alloca ptr, align 8
  %8 = alloca ptr, align 8
  %9 = alloca i32, align 4
  %10 = alloca ptr, align 8
  %11 = alloca i32, align 4
  %12 = alloca ptr, align 8
  %13 = alloca ptr, align 8
  store ptr %0, ptr %3, align 8
  store i32 %1, ptr %4, align 4
  %14 = load i32, ptr %4, align 4
  %15 = icmp sle i32 %14, 0
  br i1 %15, label %19, label %16

16:                                               ; preds = %2
  %17 = load ptr, ptr %3, align 8
  %18 = icmp ne ptr %17, null
  br i1 %18, label %20, label %19

19:                                               ; preds = %16, %2
  br label %208

20:                                               ; preds = %16
  call void @llvm.lifetime.start.p0(i64 4, ptr %5) #6
  store i32 0, ptr %5, align 4
  br label %21

21:                                               ; preds = %86, %20
  %22 = load i32, ptr %5, align 4
  %23 = load i32, ptr %4, align 4
  %24 = icmp slt i32 %22, %23
  br i1 %24, label %26, label %25

25:                                               ; preds = %21
  store i32 2, ptr %6, align 4
  call void @llvm.lifetime.end.p0(i64 4, ptr %5) #6
  br label %89

26:                                               ; preds = %21
  call void @llvm.lifetime.start.p0(i64 8, ptr %7) #6
  %27 = load ptr, ptr %3, align 8
  %28 = load i32, ptr %5, align 4
  %29 = sext i32 %28 to i64
  %30 = getelementptr inbounds ptr, ptr %27, i64 %29
  %31 = load ptr, ptr %30, align 8
  store ptr %31, ptr %7, align 8
  %32 = load ptr, ptr %7, align 8
  %33 = icmp ne ptr %32, null
  br i1 %33, label %35, label %34

34:                                               ; preds = %26
  store i32 4, ptr %6, align 4
  br label %83

35:                                               ; preds = %26
  br label %36

36:                                               ; preds = %81, %35
  br label %37

37:                                               ; preds = %36
  %38 = load ptr, ptr %7, align 8
  %39 = getelementptr inbounds nuw %struct.SDL_AudioStream, ptr %38, i32 0, i32 0
  %40 = load ptr, ptr %39, align 8
  call void @SDL_LockMutex_REAL(ptr noundef %40)
  call void @llvm.lifetime.start.p0(i64 8, ptr %8) #6
  %41 = load ptr, ptr %7, align 8
  %42 = getelementptr inbounds nuw %struct.SDL_AudioStream, ptr %41, i32 0, i32 20
  %43 = load ptr, ptr %42, align 8
  store ptr %43, ptr %8, align 8
  %44 = load ptr, ptr %7, align 8
  %45 = getelementptr inbounds nuw %struct.SDL_AudioStream, ptr %44, i32 0, i32 0
  %46 = load ptr, ptr %45, align 8
  call void @SDL_UnlockMutex_REAL(ptr noundef %46)
  %47 = load ptr, ptr %8, align 8
  %48 = icmp ne ptr %47, null
  br i1 %48, label %49, label %55

49:                                               ; preds = %37
  %50 = load ptr, ptr %8, align 8
  %51 = getelementptr inbounds nuw %struct.SDL_LogicalAudioDevice, ptr %50, i32 0, i32 1
  %52 = load ptr, ptr %51, align 8
  %53 = getelementptr inbounds nuw %struct.SDL_AudioDevice, ptr %52, i32 0, i32 0
  %54 = load ptr, ptr %53, align 8
  call void @SDL_LockMutex_REAL(ptr noundef %54)
  br label %55

55:                                               ; preds = %49, %37
  %56 = load ptr, ptr %7, align 8
  %57 = getelementptr inbounds nuw %struct.SDL_AudioStream, ptr %56, i32 0, i32 0
  %58 = load ptr, ptr %57, align 8
  call void @SDL_LockMutex_REAL(ptr noundef %58)
  %59 = load ptr, ptr %8, align 8
  %60 = load ptr, ptr %7, align 8
  %61 = getelementptr inbounds nuw %struct.SDL_AudioStream, ptr %60, i32 0, i32 20
  %62 = load ptr, ptr %61, align 8
  %63 = icmp eq ptr %59, %62
  br i1 %63, label %64, label %65

64:                                               ; preds = %55
  store i32 6, ptr %6, align 4
  br label %79

65:                                               ; preds = %55
  %66 = load ptr, ptr %7, align 8
  %67 = getelementptr inbounds nuw %struct.SDL_AudioStream, ptr %66, i32 0, i32 0
  %68 = load ptr, ptr %67, align 8
  call void @SDL_UnlockMutex_REAL(ptr noundef %68)
  %69 = load ptr, ptr %8, align 8
  %70 = icmp ne ptr %69, null
  br i1 %70, label %71, label %77

71:                                               ; preds = %65
  %72 = load ptr, ptr %8, align 8
  %73 = getelementptr inbounds nuw %struct.SDL_LogicalAudioDevice, ptr %72, i32 0, i32 1
  %74 = load ptr, ptr %73, align 8
  %75 = getelementptr inbounds nuw %struct.SDL_AudioDevice, ptr %74, i32 0, i32 0
  %76 = load ptr, ptr %75, align 8
  call void @SDL_UnlockMutex_REAL(ptr noundef %76)
  br label %77

77:                                               ; preds = %71, %65
  br label %78

78:                                               ; preds = %77
  store i32 0, ptr %6, align 4
  br label %79

79:                                               ; preds = %78, %64
  call void @llvm.lifetime.end.p0(i64 8, ptr %8) #6
  %80 = load i32, ptr %6, align 4
  switch i32 %80, label %209 [
    i32 0, label %81
    i32 6, label %82
  ]

81:                                               ; preds = %79
  br label %36

82:                                               ; preds = %79
  store i32 0, ptr %6, align 4
  br label %83

83:                                               ; preds = %82, %34
  call void @llvm.lifetime.end.p0(i64 8, ptr %7) #6
  %84 = load i32, ptr %6, align 4
  switch i32 %84, label %209 [
    i32 0, label %85
    i32 4, label %86
  ]

85:                                               ; preds = %83
  br label %86

86:                                               ; preds = %85, %83
  %87 = load i32, ptr %5, align 4
  %88 = add nsw i32 %87, 1
  store i32 %88, ptr %5, align 4
  br label %21, !llvm.loop !25

89:                                               ; preds = %25
  call void @llvm.lifetime.start.p0(i64 4, ptr %9) #6
  store i32 0, ptr %9, align 4
  br label %90

90:                                               ; preds = %166, %89
  %91 = load i32, ptr %9, align 4
  %92 = load i32, ptr %4, align 4
  %93 = icmp slt i32 %91, %92
  br i1 %93, label %95, label %94

94:                                               ; preds = %90
  store i32 7, ptr %6, align 4
  call void @llvm.lifetime.end.p0(i64 4, ptr %9) #6
  br label %169

95:                                               ; preds = %90
  call void @llvm.lifetime.start.p0(i64 8, ptr %10) #6
  %96 = load ptr, ptr %3, align 8
  %97 = load i32, ptr %9, align 4
  %98 = sext i32 %97 to i64
  %99 = getelementptr inbounds ptr, ptr %96, i64 %98
  %100 = load ptr, ptr %99, align 8
  store ptr %100, ptr %10, align 8
  %101 = load ptr, ptr %10, align 8
  %102 = icmp ne ptr %101, null
  br i1 %102, label %103, label %165

103:                                              ; preds = %95
  %104 = load ptr, ptr %10, align 8
  %105 = getelementptr inbounds nuw %struct.SDL_AudioStream, ptr %104, i32 0, i32 20
  %106 = load ptr, ptr %105, align 8
  %107 = icmp ne ptr %106, null
  br i1 %107, label %108, label %165

108:                                              ; preds = %103
  %109 = load ptr, ptr %10, align 8
  %110 = getelementptr inbounds nuw %struct.SDL_AudioStream, ptr %109, i32 0, i32 20
  %111 = load ptr, ptr %110, align 8
  %112 = getelementptr inbounds nuw %struct.SDL_LogicalAudioDevice, ptr %111, i32 0, i32 6
  %113 = load i8, ptr %112, align 1, !range !5, !noundef !6
  %114 = trunc i8 %113 to i1
  br i1 %114, label %165, label %115

115:                                              ; preds = %108
  %116 = load ptr, ptr %10, align 8
  %117 = getelementptr inbounds nuw %struct.SDL_AudioStream, ptr %116, i32 0, i32 20
  %118 = load ptr, ptr %117, align 8
  %119 = getelementptr inbounds nuw %struct.SDL_LogicalAudioDevice, ptr %118, i32 0, i32 4
  %120 = load ptr, ptr %119, align 8
  %121 = load ptr, ptr %10, align 8
  %122 = icmp eq ptr %120, %121
  br i1 %122, label %123, label %134

123:                                              ; preds = %115
  br label %124

124:                                              ; preds = %123
  br label %125

125:                                              ; preds = %124
  br label %126

126:                                              ; preds = %125
  %127 = load ptr, ptr %10, align 8
  %128 = getelementptr inbounds nuw %struct.SDL_AudioStream, ptr %127, i32 0, i32 21
  %129 = load ptr, ptr %128, align 8
  %130 = load ptr, ptr %10, align 8
  %131 = getelementptr inbounds nuw %struct.SDL_AudioStream, ptr %130, i32 0, i32 20
  %132 = load ptr, ptr %131, align 8
  %133 = getelementptr inbounds nuw %struct.SDL_LogicalAudioDevice, ptr %132, i32 0, i32 4
  store ptr %129, ptr %133, align 8
  br label %134

134:                                              ; preds = %126, %115
  %135 = load ptr, ptr %10, align 8
  %136 = getelementptr inbounds nuw %struct.SDL_AudioStream, ptr %135, i32 0, i32 22
  %137 = load ptr, ptr %136, align 8
  %138 = icmp ne ptr %137, null
  br i1 %138, label %139, label %147

139:                                              ; preds = %134
  %140 = load ptr, ptr %10, align 8
  %141 = getelementptr inbounds nuw %struct.SDL_AudioStream, ptr %140, i32 0, i32 21
  %142 = load ptr, ptr %141, align 8
  %143 = load ptr, ptr %10, align 8
  %144 = getelementptr inbounds nuw %struct.SDL_AudioStream, ptr %143, i32 0, i32 22
  %145 = load ptr, ptr %144, align 8
  %146 = getelementptr inbounds nuw %struct.SDL_AudioStream, ptr %145, i32 0, i32 21
  store ptr %142, ptr %146, align 8
  br label %147

147:                                              ; preds = %139, %134
  %148 = load ptr, ptr %10, align 8
  %149 = getelementptr inbounds nuw %struct.SDL_AudioStream, ptr %148, i32 0, i32 21
  %150 = load ptr, ptr %149, align 8
  %151 = icmp ne ptr %150, null
  br i1 %151, label %152, label %160

152:                                              ; preds = %147
  %153 = load ptr, ptr %10, align 8
  %154 = getelementptr inbounds nuw %struct.SDL_AudioStream, ptr %153, i32 0, i32 22
  %155 = load ptr, ptr %154, align 8
  %156 = load ptr, ptr %10, align 8
  %157 = getelementptr inbounds nuw %struct.SDL_AudioStream, ptr %156, i32 0, i32 21
  %158 = load ptr, ptr %157, align 8
  %159 = getelementptr inbounds nuw %struct.SDL_AudioStream, ptr %158, i32 0, i32 22
  store ptr %155, ptr %159, align 8
  br label %160

160:                                              ; preds = %152, %147
  %161 = load ptr, ptr %10, align 8
  %162 = getelementptr inbounds nuw %struct.SDL_AudioStream, ptr %161, i32 0, i32 21
  store ptr null, ptr %162, align 8
  %163 = load ptr, ptr %10, align 8
  %164 = getelementptr inbounds nuw %struct.SDL_AudioStream, ptr %163, i32 0, i32 22
  store ptr null, ptr %164, align 8
  br label %165

165:                                              ; preds = %160, %108, %103, %95
  call void @llvm.lifetime.end.p0(i64 8, ptr %10) #6
  br label %166

166:                                              ; preds = %165
  %167 = load i32, ptr %9, align 4
  %168 = add nsw i32 %167, 1
  store i32 %168, ptr %9, align 4
  br label %90, !llvm.loop !26

169:                                              ; preds = %94
  call void @llvm.lifetime.start.p0(i64 4, ptr %11) #6
  store i32 0, ptr %11, align 4
  br label %170

170:                                              ; preds = %205, %169
  %171 = load i32, ptr %11, align 4
  %172 = load i32, ptr %4, align 4
  %173 = icmp slt i32 %171, %172
  br i1 %173, label %175, label %174

174:                                              ; preds = %170
  store i32 12, ptr %6, align 4
  call void @llvm.lifetime.end.p0(i64 4, ptr %11) #6
  br label %208

175:                                              ; preds = %170
  call void @llvm.lifetime.start.p0(i64 8, ptr %12) #6
  %176 = load ptr, ptr %3, align 8
  %177 = load i32, ptr %11, align 4
  %178 = sext i32 %177 to i64
  %179 = getelementptr inbounds ptr, ptr %176, i64 %178
  %180 = load ptr, ptr %179, align 8
  store ptr %180, ptr %12, align 8
  %181 = load ptr, ptr %12, align 8
  %182 = icmp ne ptr %181, null
  br i1 %182, label %183, label %204

183:                                              ; preds = %175
  call void @llvm.lifetime.start.p0(i64 8, ptr %13) #6
  %184 = load ptr, ptr %12, align 8
  %185 = getelementptr inbounds nuw %struct.SDL_AudioStream, ptr %184, i32 0, i32 20
  %186 = load ptr, ptr %185, align 8
  store ptr %186, ptr %13, align 8
  %187 = load ptr, ptr %12, align 8
  %188 = getelementptr inbounds nuw %struct.SDL_AudioStream, ptr %187, i32 0, i32 20
  store ptr null, ptr %188, align 8
  %189 = load ptr, ptr %12, align 8
  %190 = getelementptr inbounds nuw %struct.SDL_AudioStream, ptr %189, i32 0, i32 0
  %191 = load ptr, ptr %190, align 8
  call void @SDL_UnlockMutex_REAL(ptr noundef %191)
  %192 = load ptr, ptr %13, align 8
  %193 = icmp ne ptr %192, null
  br i1 %193, label %194, label %203

194:                                              ; preds = %183
  %195 = load ptr, ptr %13, align 8
  %196 = getelementptr inbounds nuw %struct.SDL_LogicalAudioDevice, ptr %195, i32 0, i32 1
  %197 = load ptr, ptr %196, align 8
  call void @UpdateAudioStreamFormatsPhysical(ptr noundef %197)
  %198 = load ptr, ptr %13, align 8
  %199 = getelementptr inbounds nuw %struct.SDL_LogicalAudioDevice, ptr %198, i32 0, i32 1
  %200 = load ptr, ptr %199, align 8
  %201 = getelementptr inbounds nuw %struct.SDL_AudioDevice, ptr %200, i32 0, i32 0
  %202 = load ptr, ptr %201, align 8
  call void @SDL_UnlockMutex_REAL(ptr noundef %202)
  br label %203

203:                                              ; preds = %194, %183
  call void @llvm.lifetime.end.p0(i64 8, ptr %13) #6
  br label %204

204:                                              ; preds = %203, %175
  call void @llvm.lifetime.end.p0(i64 8, ptr %12) #6
  br label %205

205:                                              ; preds = %204
  %206 = load i32, ptr %11, align 4
  %207 = add nsw i32 %206, 1
  store i32 %207, ptr %11, align 4
  br label %170, !llvm.loop !27

208:                                              ; preds = %19, %174
  ret void

209:                                              ; preds = %83, %79
  unreachable
}