; Function Attrs: nounwind uwtable
define hidden void @SDL_UnbindAudioStreams_REAL(ptr noundef readonly captures(address_is_null) %0, i32 noundef %1) local_unnamed_addr #0 {
  %3 = icmp sgt i32 %1, 0
  %4 = icmp ne ptr %0, null
  %or.cond = and i1 %4, %3
  br i1 %or.cond, label %.preheader75.preheader, label %.loopexit

.preheader75.preheader:                           ; preds = %2
  %wide.trip.count = zext nneg i32 %1 to i64
  br label %.preheader75

.preheader75:                                     ; preds = %.preheader75.preheader, %.thread
  %indvars.iv = phi i64 [ 0, %.preheader75.preheader ], [ %indvars.iv.next, %.thread ]
  %5 = getelementptr inbounds nuw ptr, ptr %0, i64 %indvars.iv
  %6 = load ptr, ptr %5, align 8
  %.not69 = icmp eq ptr %6, null
  br i1 %.not69, label %.thread, label %.preheader74

.preheader74:                                     ; preds = %.preheader75
  %7 = getelementptr inbounds nuw i8, ptr %6, i64 192
  br label %8

8:                                                ; preds = %.backedge, %.preheader74
  %9 = load ptr, ptr %6, align 8
  tail call void @SDL_LockMutex_REAL(ptr noundef %9) #14
  %10 = load ptr, ptr %7, align 8
  %11 = load ptr, ptr %6, align 8
  tail call void @SDL_UnlockMutex_REAL(ptr noundef %11) #14
  %.not70 = icmp eq ptr %10, null
  br i1 %.not70, label %16, label %12

12:                                               ; preds = %8
  %13 = getelementptr inbounds nuw i8, ptr %10, i64 8
  %14 = load ptr, ptr %13, align 8
  %15 = load ptr, ptr %14, align 8
  tail call void @SDL_LockMutex_REAL(ptr noundef %15) #14
  br label %16

16:                                               ; preds = %12, %8
  %17 = load ptr, ptr %6, align 8
  tail call void @SDL_LockMutex_REAL(ptr noundef %17) #14
  %18 = load ptr, ptr %7, align 8
  %19 = icmp eq ptr %10, %18
  br i1 %19, label %.thread, label %20

20:                                               ; preds = %16
  %21 = load ptr, ptr %6, align 8
  tail call void @SDL_UnlockMutex_REAL(ptr noundef %21) #14
  br i1 %.not70, label %.backedge, label %22

22:                                               ; preds = %20
  %23 = getelementptr inbounds nuw i8, ptr %10, i64 8
  %24 = load ptr, ptr %23, align 8
  %25 = load ptr, ptr %24, align 8
  tail call void @SDL_UnlockMutex_REAL(ptr noundef %25) #14
  br label %.backedge

.backedge:                                        ; preds = %22, %20
  br label %8

.thread:                                          ; preds = %16, %.preheader75
  %indvars.iv.next = add nuw nsw i64 %indvars.iv, 1
  %exitcond.not = icmp eq i64 %indvars.iv.next, %wide.trip.count
  br i1 %exitcond.not, label %.lr.ph, label %.preheader75, !llvm.loop !25

.lr.ph79.preheader:                               ; preds = %52
  %smax = tail call i32 @llvm.smax.i32(i32 %1, i32 1)
  %wide.trip.count89 = zext nneg i32 %smax to i64
  br label %.lr.ph79

.lr.ph:                                           ; preds = %.thread, %52
  %indvars.iv81 = phi i64 [ %indvars.iv.next82, %52 ], [ 0, %.thread ]
  %26 = getelementptr inbounds nuw ptr, ptr %0, i64 %indvars.iv81
  %27 = load ptr, ptr %26, align 8
  %.not65 = icmp eq ptr %27, null
  br i1 %.not65, label %52, label %28

28:                                               ; preds = %.lr.ph
  %29 = getelementptr inbounds nuw i8, ptr %27, i64 192
  %30 = load ptr, ptr %29, align 8
  %.not66 = icmp eq ptr %30, null
  br i1 %.not66, label %52, label %31

31:                                               ; preds = %28
  %32 = getelementptr inbounds nuw i8, ptr %30, i64 33
  %33 = load i8, ptr %32, align 1, !range !6, !noundef !7
  %34 = trunc nuw i8 %33 to i1
  br i1 %34, label %52, label %35

35:                                               ; preds = %31
  %36 = getelementptr inbounds nuw i8, ptr %30, i64 24
  %37 = load ptr, ptr %36, align 8
  %38 = icmp eq ptr %37, %27
  br i1 %38, label %39, label %42

39:                                               ; preds = %35
  %40 = getelementptr inbounds nuw i8, ptr %27, i64 200
  %41 = load ptr, ptr %40, align 8
  store ptr %41, ptr %36, align 8
  br label %42

42:                                               ; preds = %39, %35
  %43 = getelementptr inbounds nuw i8, ptr %27, i64 208
  %44 = load ptr, ptr %43, align 8
  %.not67 = icmp eq ptr %44, null
  %.phi.trans.insert = getelementptr inbounds nuw i8, ptr %27, i64 200
  %.pre = load ptr, ptr %.phi.trans.insert, align 8
  br i1 %.not67, label %._crit_edge, label %45

45:                                               ; preds = %42
  %46 = getelementptr inbounds nuw i8, ptr %44, i64 200
  store ptr %.pre, ptr %46, align 8
  br label %._crit_edge

._crit_edge:                                      ; preds = %42, %45
  %47 = getelementptr inbounds nuw i8, ptr %27, i64 200
  %.not68 = icmp eq ptr %.pre, null
  br i1 %.not68, label %51, label %48

48:                                               ; preds = %._crit_edge
  %49 = load ptr, ptr %43, align 8
  %50 = getelementptr inbounds nuw i8, ptr %.pre, i64 208
  store ptr %49, ptr %50, align 8
  br label %51

51:                                               ; preds = %48, %._crit_edge
  tail call void @llvm.memset.p0.i64(ptr noundef nonnull align 8 dereferenceable(16) %47, i8 0, i64 16, i1 false)
  br label %52

52:                                               ; preds = %51, %31, %28, %.lr.ph
  %indvars.iv.next82 = add nuw nsw i64 %indvars.iv81, 1
  %exitcond85.not = icmp eq i64 %indvars.iv.next82, %wide.trip.count
  br i1 %exitcond85.not, label %.lr.ph79.preheader, label %.lr.ph, !llvm.loop !26

.lr.ph79:                                         ; preds = %.lr.ph79.preheader, %64
  %indvars.iv86 = phi i64 [ 0, %.lr.ph79.preheader ], [ %indvars.iv.next87, %64 ]
  %53 = getelementptr inbounds nuw ptr, ptr %0, i64 %indvars.iv86
  %54 = load ptr, ptr %53, align 8
  %.not = icmp eq ptr %54, null
  br i1 %.not, label %64, label %55

55:                                               ; preds = %.lr.ph79
  %56 = getelementptr inbounds nuw i8, ptr %54, i64 192
  %57 = load ptr, ptr %56, align 8
  store ptr null, ptr %56, align 8
  %58 = load ptr, ptr %54, align 8
  tail call void @SDL_UnlockMutex_REAL(ptr noundef %58) #14
  %.not64 = icmp eq ptr %57, null
  br i1 %.not64, label %64, label %59

59:                                               ; preds = %55
  %60 = getelementptr inbounds nuw i8, ptr %57, i64 8
  %61 = load ptr, ptr %60, align 8
  tail call fastcc void @UpdateAudioStreamFormatsPhysical(ptr noundef %61)
  %62 = load ptr, ptr %60, align 8
  %63 = load ptr, ptr %62, align 8
  tail call void @SDL_UnlockMutex_REAL(ptr noundef %63) #14
  br label %64

64:                                               ; preds = %55, %59, %.lr.ph79
  %indvars.iv.next87 = add nuw nsw i64 %indvars.iv86, 1
  %exitcond90.not = icmp eq i64 %indvars.iv.next87, %wide.trip.count89
  br i1 %exitcond90.not, label %.loopexit, label %.lr.ph79, !llvm.loop !27

.loopexit:                                        ; preds = %64, %2
  ret void
}